target datalayout = "e-m:e-p270:32:32-p271:32:32-p272:64:64-i64:64-i128:128-f80:128-n8:16:32:64-S128"
target triple = "x86_64-pc-linux-gnu"

%struct.OSQPVectorf_ = type { ptr, i64 }

; Function Attrs: nounwind uwtable
define double @OSQPVectorf_norm_2(ptr noundef %0) #0 {
  %2 = alloca ptr, align 8
  %3 = alloca i64, align 8
  %4 = alloca i64, align 8
  %5 = alloca ptr, align 8
  %6 = alloca double, align 8
  store ptr %0, ptr %2, align 8
  %7 = load ptr, ptr %2, align 8
  %8 = getelementptr inbounds %struct.OSQPVectorf_, ptr %7, i32 0, i32 1
  %9 = load i64, ptr %8, align 8
  store i64 %9, ptr %4, align 8
  %10 = load ptr, ptr %2, align 8
  %11 = getelementptr inbounds %struct.OSQPVectorf_, ptr %10, i32 0, i32 0
  %12 = load ptr, ptr %11, align 8
  store ptr %12, ptr %5, align 8
  store double 0.000000e+00, ptr %6, align 8
  store i64 0, ptr %3, align 8
  br label %13

13:                                               ; preds = %28, %1
  %14 = load i64, ptr %3, align 8
  %15 = load i64, ptr %4, align 8
  %16 = icmp slt i64 %14, %15
  br i1 %16, label %17, label %31

17:                                               ; preds = %13
  %18 = load ptr, ptr %5, align 8
  %19 = load i64, ptr %3, align 8
  %20 = getelementptr inbounds double, ptr %18, i64 %19
  %21 = load double, ptr %20, align 8
  %22 = load ptr, ptr %5, align 8
  %23 = load i64, ptr %3, align 8
  %24 = getelementptr inbounds double, ptr %22, i64 %23
  %25 = load double, ptr %24, align 8
  %26 = load double, ptr %6, align 8
  %27 = call double @llvm.fmuladd.f64(double %21, double %25, double %26)
  store double %27, ptr %6, align 8
  br label %28

28:                                               ; preds = %17
  %29 = load i64, ptr %3, align 8
  %30 = add nsw i64 %29, 1
  store i64 %30, ptr %3, align 8
  br label %13, !llvm.loop !14

31:                                               ; preds = %13
  %32 = load double, ptr %6, align 8
  %33 = call double @sqrt(double noundef %32) #6
  ret double %33
}